; Function Attrs: nounwind uwtable
define range(i32 -2147483648, 1) i32 @av_new_packet(ptr noundef writeonly captures(none) %0, i32 noundef %1) local_unnamed_addr #3 {
  %3 = alloca ptr, align 8
  call void @llvm.lifetime.start.p0(i64 8, ptr nonnull %3) #16
  store ptr null, ptr %3, align 8, !tbaa !27
  %or.cond.i = icmp ugt i32 %1, 2147483582
  br i1 %or.cond.i, label %packet_alloc.exit.thread, label %4

4:                                                ; preds = %2
  %5 = add nuw nsw i32 %1, 64
  %6 = zext nneg i32 %5 to i64
  %7 = call i32 @av_buffer_realloc(ptr noundef nonnull %3, i64 noundef %6) #16
  %8 = icmp slt i32 %7, 0
  br i1 %8, label %packet_alloc.exit.thread, label %9

9:                                                ; preds = %4
  %10 = load ptr, ptr %3, align 8, !tbaa !27
  %11 = getelementptr inbounds nuw i8, ptr %10, i64 8
  %12 = load ptr, ptr %11, align 8, !tbaa !28
  %13 = zext nneg i32 %1 to i64
  %14 = getelementptr inbounds nuw i8, ptr %12, i64 %13
  call void @llvm.memset.p0.i64(ptr noundef nonnull align 1 dereferenceable(64) %14, i8 0, i64 64, i1 false)
  %15 = getelementptr inbounds nuw i8, ptr %0, i64 24
  call void @llvm.memset.p0.i64(ptr noundef nonnull align 8 dereferenceable(72) %15, i8 0, i64 72, i1 false)
  %16 = getelementptr inbounds nuw i8, ptr %0, i64 8
  store i64 -9223372036854775808, ptr %16, align 8, !tbaa !4
  %17 = getelementptr inbounds nuw i8, ptr %0, i64 16
  store i64 -9223372036854775808, ptr %17, align 8, !tbaa !15
  %18 = getelementptr inbounds nuw i8, ptr %0, i64 72
  store i64 -1, ptr %18, align 8, !tbaa !16
  %19 = getelementptr inbounds nuw i8, ptr %0, i64 96
  store i64 4294967296, ptr %19, align 8
  store ptr %10, ptr %0, align 8, !tbaa !20
  %20 = load ptr, ptr %11, align 8, !tbaa !28
  %21 = getelementptr inbounds nuw i8, ptr %0, i64 24
  store ptr %20, ptr %21, align 8, !tbaa !31
  %22 = getelementptr inbounds nuw i8, ptr %0, i64 32
  store i32 %1, ptr %22, align 8, !tbaa !32
  br label %packet_alloc.exit.thread

packet_alloc.exit.thread:                         ; preds = %4, %2, %9
  %.0 = phi i32 [ 0, %9 ], [ %7, %4 ], [ -22, %2 ]
  call void @llvm.lifetime.end.p0(i64 8, ptr nonnull %3) #16
  ret i32 %.0
}